; ModuleID = '10/2157.c'
source_filename = "10/2157.c"
target datalayout = "e-m:e-p270:32:32-p271:32:32-p272:64:64-i64:64-f80:128-n8:16:32:64-S128"
target triple = "x86_64-pc-linux-gnu"

@.str = private unnamed_addr constant [3 x i8] c"%d\00", align 1
@dp = common dso_local global [100 x i32] zeroinitializer, align 16

; Function Attrs: noinline nounwind uwtable
define dso_local i32 @main() #0 {
  %1 = alloca i32, align 4
  %2 = alloca i32, align 4
  %3 = alloca i32, align 4
  %4 = alloca i32, align 4
  %5 = alloca i32*, align 8
  %6 = alloca i32, align 4
  %7 = alloca i32, align 4
  store i32 0, i32* %1, align 4
  %8 = call i32 (i8*, ...) @__isoc99_scanf(i8* getelementptr inbounds ([3 x i8], [3 x i8]* @.str, i64 0, i64 0), i32* %4)
  %9 = load i32, i32* %4, align 4
  %10 = add nsw i32 %9, 1
  %11 = sext i32 %10 to i64
  %12 = mul i64 %11, 4
  %13 = call noalias i8* @malloc(i64 %12) #3
  %14 = bitcast i8* %13 to i32*
  store i32* %14, i32** %5, align 8
  store i32 1, i32* %2, align 4
  br label %15

15:                                               ; preds = %25, %0
  %16 = load i32, i32* %2, align 4
  %17 = load i32, i32* %4, align 4
  %18 = icmp sle i32 %16, %17
  br i1 %18, label %19, label %28

19:                                               ; preds = %15
  %20 = load i32*, i32** %5, align 8
  %21 = load i32, i32* %2, align 4
  %22 = sext i32 %21 to i64
  %23 = getelementptr inbounds i32, i32* %20, i64 %22
  %24 = call i32 (i8*, ...) @__isoc99_scanf(i8* getelementptr inbounds ([3 x i8], [3 x i8]* @.str, i64 0, i64 0), i32* %23)
  br label %25

25:                                               ; preds = %19
  %26 = load i32, i32* %2, align 4
  %27 = add nsw i32 %26, 1
  store i32 %27, i32* %2, align 4
  br label %15

28:                                               ; preds = %15
  %29 = load i32, i32* %4, align 4
  %30 = sext i32 %29 to i64
  %31 = getelementptr inbounds [100 x i32], [100 x i32]* @dp, i64 0, i64 %30
  store i32 0, i32* %31, align 4
  %32 = load i32, i32* %4, align 4
  %33 = sub nsw i32 %32, 1
  store i32 %33, i32* %2, align 4
  br label %34

34:                                               ; preds = %80, %28
  %35 = load i32, i32* %2, align 4
  %36 = icmp sge i32 %35, 0
  br i1 %36, label %37, label %83

37:                                               ; preds = %34
  store i32 0, i32* %6, align 4
  %38 = load i32, i32* %2, align 4
  %39 = add nsw i32 %38, 1
  store i32 %39, i32* %3, align 4
  br label %40

40:                                               ; preds = %72, %37
  %41 = load i32, i32* %3, align 4
  %42 = load i32, i32* %4, align 4
  %43 = icmp sle i32 %41, %42
  br i1 %43, label %44, label %75

44:                                               ; preds = %40
  %45 = load i32*, i32** %5, align 8
  %46 = load i32, i32* %2, align 4
  %47 = sext i32 %46 to i64
  %48 = getelementptr inbounds i32, i32* %45, i64 %47
  %49 = load i32, i32* %48, align 4
  %50 = load i32*, i32** %5, align 8
  %51 = load i32, i32* %3, align 4
  %52 = sext i32 %51 to i64
  %53 = getelementptr inbounds i32, i32* %50, i64 %52
  %54 = load i32, i32* %53, align 4
  %55 = icmp sge i32 %49, %54
  br i1 %55, label %56, label %71

56:                                               ; preds = %44
  %57 = load i32, i32* %3, align 4
  %58 = sext i32 %57 to i64
  %59 = getelementptr inbounds [100 x i32], [100 x i32]* @dp, i64 0, i64 %58
  %60 = load i32, i32* %59, align 4
  %61 = add nsw i32 %60, 1
  %62 = load i32, i32* %6, align 4
  %63 = icmp sgt i32 %61, %62
  br i1 %63, label %64, label %70

64:                                               ; preds = %56
  %65 = load i32, i32* %3, align 4
  %66 = sext i32 %65 to i64
  %67 = getelementptr inbounds [100 x i32], [100 x i32]* @dp, i64 0, i64 %66
  %68 = load i32, i32* %67, align 4
  %69 = add nsw i32 %68, 1
  store i32 %69, i32* %6, align 4
  br label %70

70:                                               ; preds = %64, %56
  br label %71

71:                                               ; preds = %70, %44
  br label %72

72:                                               ; preds = %71
  %73 = load i32, i32* %3, align 4
  %74 = add nsw i32 %73, 1
  store i32 %74, i32* %3, align 4
  br label %40

75:                                               ; preds = %40
  %76 = load i32, i32* %6, align 4
  %77 = load i32, i32* %2, align 4
  %78 = sext i32 %77 to i64
  %79 = getelementptr inbounds [100 x i32], [100 x i32]* @dp, i64 0, i64 %78
  store i32 %76, i32* %79, align 4
  br label %80

80:                                               ; preds = %75
  %81 = load i32, i32* %2, align 4
  %82 = add nsw i32 %81, -1
  store i32 %82, i32* %2, align 4
  br label %34

83:                                               ; preds = %34
  store i32 0, i32* %7, align 4
  store i32 0, i32* %2, align 4
  br label %84

84:                                               ; preds = %101, %83
  %85 = load i32, i32* %2, align 4
  %86 = load i32, i32* %4, align 4
  %87 = icmp sle i32 %85, %86
  br i1 %87, label %88, label %104

88:                                               ; preds = %84
  %89 = load i32, i32* %2, align 4
  %90 = sext i32 %89 to i64
  %91 = getelementptr inbounds [100 x i32], [100 x i32]* @dp, i64 0, i64 %90
  %92 = load i32, i32* %91, align 4
  %93 = load i32, i32* %7, align 4
  %94 = icmp sgt i32 %92, %93
  br i1 %94, label %95, label %100

95:                                               ; preds = %88
  %96 = load i32, i32* %2, align 4
  %97 = sext i32 %96 to i64
  %98 = getelementptr inbounds [100 x i32], [100 x i32]* @dp, i64 0, i64 %97
  %99 = load i32, i32* %98, align 4
  store i32 %99, i32* %7, align 4
  br label %100

100:                                              ; preds = %95, %88
  br label %101

101:                                              ; preds = %100
  %102 = load i32, i32* %2, align 4
  %103 = add nsw i32 %102, 1
  store i32 %103, i32* %2, align 4
  br label %84

104:                                              ; preds = %84
  %105 = load i32, i32* %7, align 4
  %106 = add nsw i32 %105, 1
  %107 = call i32 (i8*, ...) @printf(i8* getelementptr inbounds ([3 x i8], [3 x i8]* @.str, i64 0, i64 0), i32 %106)
  ret i32 0
}

declare dso_local i32 @__isoc99_scanf(i8*, ...) #1

; Function Attrs: nounwind
declare dso_local noalias i8* @malloc(i64) #2

declare dso_local i32 @printf(i8*, ...) #1


!llvm.module.flags = !{!0}
!llvm.ident = !{!1}

!0 = !{i32 1, !"wchar_size", i32 4}
!1 = !{!"clang version 10.0.0-4ubuntu1 "}
